(dp1
S'sort_id'
p2
NsS'sort_order'
p3
NsS'columns'
p4
(dp5
S'F\xc3\xa1jln\xc3\xa9v'
p6
(dp7
S'position'
p8
I0
sS'width'
p9
I200
ssS'M\xc3\xa9ret'
p10
(dp11
g8
I1
sg9
I51
ssS'Folyamat'
p12
(dp13
g8
I2
sg9
I100
ssS'Els\xc5\x91bbs\xc3\xa9g'
p14
(dp15
g8
I3
sg9
I330
sss.