(dp1
S'sort_id'
p2
NsS'sort_order'
p3
NsS'columns'
p4
(dp5
S'Folyamat'
p6
(dp7
S'position'
p8
I3
sS'width'
p9
I100
ssS'Felt\xc3\xb6lt\xc3\xa9s sebess\xc3\xa9ge'
p10
(dp11
g8
I5
sg9
I222
ssS'C\xc3\xadm'
p12
(dp13
g8
I1
sg9
I100
ssN(dp14
g8
I0
sg9
I20
ssS'Kliens'
p15
(dp16
g8
I2
sg9
I100
ssS'Let\xc3\xb6lt\xc3\xa9s sebess\xc3\xa9ge'
p17
(dp18
g8
I4
sg9
I139
sss.